; Function Attrs: mustprogress uwtable
define dso_local void @_ZN3net22QuicCryptoServerStream18OnServerHelloAckedEv(ptr nocapture noundef nonnull readonly align 8 dereferenceable(1328) %this) unnamed_addr #0 align 2 {
entry:
  %session_.i = getelementptr inbounds i8, ptr %this, i64 224
  %0 = load ptr, ptr %session_.i, align 8
  %connection_.i = getelementptr inbounds i8, ptr %0, i64 56
  %1 = load ptr, ptr %connection_.i, align 8
  tail call void @_ZN3net14QuicConnection19OnHandshakeCompleteEv(ptr noundef nonnull align 8 dereferenceable(3372) %1)
  ret void
}